target datalayout = "e-m:e-p270:32:32-p271:32:32-p272:64:64-i64:64-i128:128-f80:128-n8:16:32:64-S128"
target triple = "x86_64-pc-linux-gnu"

%struct.AVFormatContext = type { ptr, ptr, ptr, ptr, ptr, i32, i32, ptr, i32, ptr, i32, ptr, ptr, i64, i64, i64, i32, i32, i32, i64, i64, ptr, i32, i32, ptr, i32, i32, i32, i32, ptr, i64, i32, i32, %struct.AVIOInterruptCB, i32, i32, i32, i32, i64, i32, i32, i32, i32, i32, i32, i32, i32, i32, i32, i32, i32, i64, i32, i32, i32, i32, i32, ptr, ptr, ptr, ptr, i32, ptr, ptr, ptr, ptr, i32, ptr, ptr, i64, ptr, ptr, ptr, i64 }
%struct.AVIOInterruptCB = type { ptr, ptr }
%struct.SmoothStreamingContext = type { ptr, i32, i32, i32, i32, i32, ptr, i32, i32, i32 }

@.str.35 = private unnamed_addr constant [12 x i8] c"%s/Manifest\00", align 1

; Function Attrs: nounwind uwtable
define internal i32 @ism_write_trailer(ptr noundef %0) #0 {
  %2 = alloca ptr, align 8
  %3 = alloca ptr, align 8
  %4 = alloca [1024 x i8], align 16
  store ptr %0, ptr %2, align 8, !tbaa !4
  call void @llvm.lifetime.start.p0(i64 8, ptr %3) #9
  %5 = load ptr, ptr %2, align 8, !tbaa !4
  %6 = getelementptr inbounds nuw %struct.AVFormatContext, ptr %5, i32 0, i32 3
  %7 = load ptr, ptr %6, align 8, !tbaa !9
  store ptr %7, ptr %3, align 8, !tbaa !26
  %8 = load ptr, ptr %2, align 8, !tbaa !4
  %9 = call i32 @ism_flush(ptr noundef %8, i32 noundef 1)
  %10 = load ptr, ptr %3, align 8, !tbaa !26
  %11 = getelementptr inbounds nuw %struct.SmoothStreamingContext, ptr %10, i32 0, i32 5
  %12 = load i32, ptr %11, align 8, !tbaa !96
  %13 = icmp ne i32 %12, 0
  br i1 %13, label %14, label %26

14:                                               ; preds = %1
  call void @llvm.lifetime.start.p0(i64 1024, ptr %4) #9
  %15 = getelementptr inbounds [1024 x i8], ptr %4, i64 0, i64 0
  %16 = load ptr, ptr %2, align 8, !tbaa !4
  %17 = getelementptr inbounds nuw %struct.AVFormatContext, ptr %16, i32 0, i32 12
  %18 = load ptr, ptr %17, align 8, !tbaa !29
  %19 = call i32 (ptr, i64, ptr, ...) @snprintf(ptr noundef %15, i64 noundef 1024, ptr noundef @.str.35, ptr noundef %18) #9
  %20 = getelementptr inbounds [1024 x i8], ptr %4, i64 0, i64 0
  %21 = call i32 @unlink(ptr noundef %20) #9
  %22 = load ptr, ptr %2, align 8, !tbaa !4
  %23 = getelementptr inbounds nuw %struct.AVFormatContext, ptr %22, i32 0, i32 12
  %24 = load ptr, ptr %23, align 8, !tbaa !29
  %25 = call i32 @rmdir(ptr noundef %24) #9
  call void @llvm.lifetime.end.p0(i64 1024, ptr %4) #9
  br label %26

26:                                               ; preds = %14, %1
  call void @llvm.lifetime.end.p0(i64 8, ptr %3) #9
  ret i32 0
}