; Function Attrs: nounwind uwtable
define internal noundef i32 @ism_write_trailer(ptr noundef %0) #0 {
  %2 = alloca [1024 x i8], align 16
  %3 = getelementptr inbounds nuw i8, ptr %0, i64 24
  %4 = load ptr, ptr %3, align 8, !tbaa !4
  %5 = tail call fastcc i32 @ism_flush(ptr noundef %0, i32 noundef 1)
  %6 = getelementptr inbounds nuw i8, ptr %4, i64 24
  %7 = load i32, ptr %6, align 8, !tbaa !89
  %.not = icmp eq i32 %7, 0
  br i1 %.not, label %15, label %8

8:                                                ; preds = %1
  call void @llvm.lifetime.start.p0(i64 1024, ptr nonnull %2) #8
  %9 = getelementptr inbounds nuw i8, ptr %0, i64 88
  %10 = load ptr, ptr %9, align 8, !tbaa !24
  %11 = call i32 (ptr, i64, ptr, ...) @snprintf(ptr noundef nonnull dereferenceable(1) %2, i64 noundef 1024, ptr noundef nonnull @.str.35, ptr noundef %10) #8
  %12 = call i32 @unlink(ptr noundef nonnull %2) #8
  %13 = load ptr, ptr %9, align 8, !tbaa !24
  %14 = tail call i32 @rmdir(ptr noundef %13) #8
  call void @llvm.lifetime.end.p0(i64 1024, ptr nonnull %2) #8
  br label %15

15:                                               ; preds = %8, %1
  ret i32 0
}